target datalayout = "e-m:e-p270:32:32-p271:32:32-p272:64:64-i64:64-i128:128-f80:128-n8:16:32:64-S128"
target triple = "x86_64-pc-linux-gnu"

%"class.Assimp::SMDImporter" = type <{ %"class.Assimp::BaseImporter", i32, [4 x i8], %"class.std::vector", ptr, ptr, i32, [4 x i8], %"class.std::vector.0", %"class.std::vector.5", %"class.std::vector.10", i32, [4 x i8], double, i8, [3 x i8], i32, i8, i8, [6 x i8] }>
%"class.Assimp::BaseImporter" = type { ptr, double, double, %"class.std::__cxx11::basic_string", %"class.std::__exception_ptr::exception_ptr", ptr }
%"class.std::__cxx11::basic_string" = type { %"struct.std::__cxx11::basic_string<char>::_Alloc_hider", i64, %union.anon }
%"struct.std::__cxx11::basic_string<char>::_Alloc_hider" = type { ptr }
%union.anon = type { i64, [8 x i8] }
%"class.std::__exception_ptr::exception_ptr" = type { ptr }
%"class.std::vector" = type { %"struct.std::_Vector_base" }
%"struct.std::_Vector_base" = type { %"struct.std::_Vector_base<char, std::allocator<char>>::_Vector_impl" }
%"struct.std::_Vector_base<char, std::allocator<char>>::_Vector_impl" = type { %"struct.std::_Vector_base<char, std::allocator<char>>::_Vector_impl_data" }
%"struct.std::_Vector_base<char, std::allocator<char>>::_Vector_impl_data" = type { ptr, ptr, ptr }
%"class.std::vector.0" = type { %"struct.std::_Vector_base.1" }
%"struct.std::_Vector_base.1" = type { %"struct.std::_Vector_base<std::__cxx11::basic_string<char>, std::allocator<std::__cxx11::basic_string<char>>>::_Vector_impl" }
%"struct.std::_Vector_base<std::__cxx11::basic_string<char>, std::allocator<std::__cxx11::basic_string<char>>>::_Vector_impl" = type { %"struct.std::_Vector_base<std::__cxx11::basic_string<char>, std::allocator<std::__cxx11::basic_string<char>>>::_Vector_impl_data" }
%"struct.std::_Vector_base<std::__cxx11::basic_string<char>, std::allocator<std::__cxx11::basic_string<char>>>::_Vector_impl_data" = type { ptr, ptr, ptr }
%"class.std::vector.5" = type { %"struct.std::_Vector_base.6" }
%"struct.std::_Vector_base.6" = type { %"struct.std::_Vector_base<Assimp::SMD::Face, std::allocator<Assimp::SMD::Face>>::_Vector_impl" }
%"struct.std::_Vector_base<Assimp::SMD::Face, std::allocator<Assimp::SMD::Face>>::_Vector_impl" = type { %"struct.std::_Vector_base<Assimp::SMD::Face, std::allocator<Assimp::SMD::Face>>::_Vector_impl_data" }
%"struct.std::_Vector_base<Assimp::SMD::Face, std::allocator<Assimp::SMD::Face>>::_Vector_impl_data" = type { ptr, ptr, ptr }
%"class.std::vector.10" = type { %"struct.std::_Vector_base.11" }
%"struct.std::_Vector_base.11" = type { %"struct.std::_Vector_base<Assimp::SMD::Bone, std::allocator<Assimp::SMD::Bone>>::_Vector_impl" }
%"struct.std::_Vector_base<Assimp::SMD::Bone, std::allocator<Assimp::SMD::Bone>>::_Vector_impl" = type { %"struct.std::_Vector_base<Assimp::SMD::Bone, std::allocator<Assimp::SMD::Bone>>::_Vector_impl_data" }
%"struct.std::_Vector_base<Assimp::SMD::Bone, std::allocator<Assimp::SMD::Bone>>::_Vector_impl_data" = type { ptr, ptr, ptr }
%"class.__gnu_cxx::__normal_iterator" = type { ptr }
%struct.aiScene = type { i32, ptr, i32, ptr, i32, ptr, i32, ptr, i32, ptr, i32, ptr, i32, ptr, ptr, %struct.aiString, i32, ptr, ptr }
%struct.aiString = type { i32, [1024 x i8] }
%"struct.Assimp::SMD::Bone" = type <{ %"class.std::__cxx11::basic_string", i32, [4 x i8], %"struct.Assimp::SMD::Bone::Animation", %class.aiMatrix4x4t, i8, [7 x i8] }>
%"struct.Assimp::SMD::Bone::Animation" = type { i32, %"class.std::vector.16" }
%"class.std::vector.16" = type { %"struct.std::_Vector_base.17" }
%"struct.std::_Vector_base.17" = type { %"struct.std::_Vector_base<Assimp::SMD::Bone::Animation::MatrixKey, std::allocator<Assimp::SMD::Bone::Animation::MatrixKey>>::_Vector_impl" }
%"struct.std::_Vector_base<Assimp::SMD::Bone::Animation::MatrixKey, std::allocator<Assimp::SMD::Bone::Animation::MatrixKey>>::_Vector_impl" = type { %"struct.std::_Vector_base<Assimp::SMD::Bone::Animation::MatrixKey, std::allocator<Assimp::SMD::Bone::Animation::MatrixKey>>::_Vector_impl_data" }
%"struct.std::_Vector_base<Assimp::SMD::Bone::Animation::MatrixKey, std::allocator<Assimp::SMD::Bone::Animation::MatrixKey>>::_Vector_impl_data" = type { ptr, ptr, ptr }
%class.aiMatrix4x4t = type { float, float, float, float, float, float, float, float, float, float, float, float, float, float, float, float }
%struct.aiNode = type { %struct.aiString, %class.aiMatrix4x4t, ptr, i32, ptr, i32, ptr, ptr }

@_ZZN6Assimp11SMDImporter17CreateOutputNodesEvE8rootName = internal constant [11 x i8] c"<SMD_root>\00", align 1

; Function Attrs: mustprogress nounwind uwtable
define linkonce_odr hidden noundef nonnull align 8 dereferenceable(8) ptr @_ZNK9__gnu_cxx17__normal_iteratorIPN6Assimp3SMD4BoneESt6vectorIS3_SaIS3_EEE4baseEv(ptr noundef nonnull align 8 dereferenceable(8) %0) #0 comdat align 2 {
  %2 = alloca ptr, align 8
  store ptr %0, ptr %2, align 8
  %3 = load ptr, ptr %2, align 8
  %4 = getelementptr inbounds nuw %"class.__gnu_cxx::__normal_iterator", ptr %3, i32 0, i32 0
  ret ptr %4
}

; Function Attrs: mustprogress nounwind uwtable
define linkonce_odr hidden void @_ZN9__gnu_cxx17__normal_iteratorIPN6Assimp3SMD4BoneESt6vectorIS3_SaIS3_EEEC2ERKS4_(ptr noundef nonnull align 8 dereferenceable(8) %0, ptr noundef nonnull align 8 dereferenceable(8) %1) unnamed_addr #0 comdat align 2 {
  %3 = alloca ptr, align 8
  %4 = alloca ptr, align 8
  store ptr %0, ptr %3, align 8
  store ptr %1, ptr %4, align 8
  %5 = load ptr, ptr %3, align 8
  %6 = getelementptr inbounds nuw %"class.__gnu_cxx::__normal_iterator", ptr %5, i32 0, i32 0
  %7 = load ptr, ptr %4, align 8
  %8 = load ptr, ptr %7, align 8
  store ptr %8, ptr %6, align 8
  ret void
}

; Function Attrs: mustprogress nounwind uwtable
define linkonce_odr hidden noundef nonnull align 8 dereferenceable(8) ptr @_ZN9__gnu_cxx17__normal_iteratorIPN6Assimp3SMD4BoneESt6vectorIS3_SaIS3_EEEppEv(ptr noundef nonnull align 8 dereferenceable(8) %0) #0 comdat align 2 {
  %2 = alloca ptr, align 8
  store ptr %0, ptr %2, align 8
  %3 = load ptr, ptr %2, align 8
  %4 = getelementptr inbounds nuw %"class.__gnu_cxx::__normal_iterator", ptr %3, i32 0, i32 0
  %5 = load ptr, ptr %4, align 8
  %6 = getelementptr inbounds nuw %"struct.Assimp::SMD::Bone", ptr %5, i32 1
  store ptr %6, ptr %4, align 8
  ret ptr %3
}

; Function Attrs: mustprogress nounwind uwtable
define linkonce_odr hidden noundef nonnull align 8 dereferenceable(137) ptr @_ZNK9__gnu_cxx17__normal_iteratorIPN6Assimp3SMD4BoneESt6vectorIS3_SaIS3_EEEdeEv(ptr noundef nonnull align 8 dereferenceable(8) %0) #0 comdat align 2 {
  %2 = alloca ptr, align 8
  store ptr %0, ptr %2, align 8
  %3 = load ptr, ptr %2, align 8
  %4 = getelementptr inbounds nuw %"class.__gnu_cxx::__normal_iterator", ptr %3, i32 0, i32 0
  %5 = load ptr, ptr %4, align 8
  ret ptr %5
}

; Function Attrs: inlinehint mustprogress nounwind uwtable
define linkonce_odr hidden noundef zeroext i1 @_ZN9__gnu_cxxneIPN6Assimp3SMD4BoneESt6vectorIS3_SaIS3_EEEEbRKNS_17__normal_iteratorIT_T0_EESD_(ptr noundef nonnull align 8 dereferenceable(8) %0, ptr noundef nonnull align 8 dereferenceable(8) %1) #6 comdat {
  %3 = alloca ptr, align 8
  %4 = alloca ptr, align 8
  store ptr %0, ptr %3, align 8
  store ptr %1, ptr %4, align 8
  %5 = load ptr, ptr %3, align 8
  %6 = call noundef nonnull align 8 dereferenceable(8) ptr @_ZNK9__gnu_cxx17__normal_iteratorIPN6Assimp3SMD4BoneESt6vectorIS3_SaIS3_EEE4baseEv(ptr noundef nonnull align 8 dereferenceable(8) %5) #17
  %7 = load ptr, ptr %6, align 8
  %8 = load ptr, ptr %4, align 8
  %9 = call noundef nonnull align 8 dereferenceable(8) ptr @_ZNK9__gnu_cxx17__normal_iteratorIPN6Assimp3SMD4BoneESt6vectorIS3_SaIS3_EEE4baseEv(ptr noundef nonnull align 8 dereferenceable(8) %8) #17
  %10 = load ptr, ptr %9, align 8
  %11 = icmp ne ptr %7, %10
  ret i1 %11
}

; Function Attrs: mustprogress nounwind uwtable
define linkonce_odr hidden ptr @_ZNSt6vectorIN6Assimp3SMD4BoneESaIS2_EE3endEv(ptr noundef nonnull align 8 dereferenceable(24) %0) #0 comdat align 2 {
  %2 = alloca %"class.__gnu_cxx::__normal_iterator", align 8
  %3 = alloca ptr, align 8
  store ptr %0, ptr %3, align 8
  %4 = load ptr, ptr %3, align 8
  %5 = getelementptr inbounds nuw %"struct.std::_Vector_base.11", ptr %4, i32 0, i32 0
  %6 = getelementptr inbounds nuw %"struct.std::_Vector_base<Assimp::SMD::Bone, std::allocator<Assimp::SMD::Bone>>::_Vector_impl_data", ptr %5, i32 0, i32 1
  call void @_ZN9__gnu_cxx17__normal_iteratorIPN6Assimp3SMD4BoneESt6vectorIS3_SaIS3_EEEC2ERKS4_(ptr noundef nonnull align 8 dereferenceable(8) %2, ptr noundef nonnull align 8 dereferenceable(8) %6) #17
  %7 = getelementptr inbounds nuw %"class.__gnu_cxx::__normal_iterator", ptr %2, i32 0, i32 0
  %8 = load ptr, ptr %7, align 8
  ret ptr %8
}

; Function Attrs: mustprogress nounwind uwtable
define linkonce_odr hidden ptr @_ZNSt6vectorIN6Assimp3SMD4BoneESaIS2_EE5beginEv(ptr noundef nonnull align 8 dereferenceable(24) %0) #0 comdat align 2 {
  %2 = alloca %"class.__gnu_cxx::__normal_iterator", align 8
  %3 = alloca ptr, align 8
  store ptr %0, ptr %3, align 8
  %4 = load ptr, ptr %3, align 8
  %5 = getelementptr inbounds nuw %"struct.std::_Vector_base.11", ptr %4, i32 0, i32 0
  %6 = getelementptr inbounds nuw %"struct.std::_Vector_base<Assimp::SMD::Bone, std::allocator<Assimp::SMD::Bone>>::_Vector_impl_data", ptr %5, i32 0, i32 0
  call void @_ZN9__gnu_cxx17__normal_iteratorIPN6Assimp3SMD4BoneESt6vectorIS3_SaIS3_EEEC2ERKS4_(ptr noundef nonnull align 8 dereferenceable(8) %2, ptr noundef nonnull align 8 dereferenceable(8) %6) #17
  %7 = getelementptr inbounds nuw %"class.__gnu_cxx::__normal_iterator", ptr %2, i32 0, i32 0
  %8 = load ptr, ptr %7, align 8
  ret ptr %8
}

; Function Attrs: mustprogress uwtable
define void @_ZN6Assimp11SMDImporter17CreateOutputNodesEv(ptr noundef nonnull align 8 dereferenceable(226) %0) #3 align 2 personality ptr @__gxx_personality_v0 {
  %2 = alloca ptr, align 8
  %3 = alloca ptr, align 8
  %4 = alloca i32, align 4
  %5 = alloca ptr, align 8
  %6 = alloca %"class.__gnu_cxx::__normal_iterator", align 8
  %7 = alloca %"class.__gnu_cxx::__normal_iterator", align 8
  %8 = alloca ptr, align 8
  %9 = alloca ptr, align 8
  store ptr %0, ptr %2, align 8
  %10 = load ptr, ptr %2, align 8
  %11 = call noalias noundef nonnull ptr @_Znwm(i64 noundef 1144) #19
  invoke void @_ZN6aiNodeC1Ev(ptr noundef nonnull align 8 dereferenceable(1144) %11)
          to label %12 unwind label %30

12:                                               ; preds = %1
  %13 = getelementptr inbounds nuw %"class.Assimp::SMDImporter", ptr %10, i32 0, i32 5
  %14 = load ptr, ptr %13, align 8
  %15 = getelementptr inbounds nuw %struct.aiScene, ptr %14, i32 0, i32 1
  store ptr %11, ptr %15, align 8
  %16 = getelementptr inbounds nuw %"class.Assimp::SMDImporter", ptr %10, i32 0, i32 5
  %17 = load ptr, ptr %16, align 8
  %18 = getelementptr inbounds nuw %struct.aiScene, ptr %17, i32 0, i32 1
  %19 = load ptr, ptr %18, align 8
  call void @_ZN6Assimp11SMDImporter15AddBoneChildrenEP6aiNodej(ptr noundef nonnull align 8 dereferenceable(226) %10, ptr noundef %19, i32 noundef -1)
  call void @llvm.lifetime.start.p0(i64 8, ptr %5) #17
  %20 = getelementptr inbounds nuw %"class.Assimp::SMDImporter", ptr %10, i32 0, i32 10
  store ptr %20, ptr %5, align 8
  call void @llvm.lifetime.start.p0(i64 8, ptr %6) #17
  %21 = load ptr, ptr %5, align 8
  %22 = call ptr @_ZNSt6vectorIN6Assimp3SMD4BoneESaIS2_EE5beginEv(ptr noundef nonnull align 8 dereferenceable(24) %21) #17
  %23 = getelementptr inbounds nuw %"class.__gnu_cxx::__normal_iterator", ptr %6, i32 0, i32 0
  store ptr %22, ptr %23, align 8
  call void @llvm.lifetime.start.p0(i64 8, ptr %7) #17
  %24 = load ptr, ptr %5, align 8
  %25 = call ptr @_ZNSt6vectorIN6Assimp3SMD4BoneESaIS2_EE3endEv(ptr noundef nonnull align 8 dereferenceable(24) %24) #17
  %26 = getelementptr inbounds nuw %"class.__gnu_cxx::__normal_iterator", ptr %7, i32 0, i32 0
  store ptr %25, ptr %26, align 8
  br label %27

27:                                               ; preds = %39, %12
  %28 = call noundef zeroext i1 @_ZN9__gnu_cxxneIPN6Assimp3SMD4BoneESt6vectorIS3_SaIS3_EEEEbRKNS_17__normal_iteratorIT_T0_EESD_(ptr noundef nonnull align 8 dereferenceable(8) %6, ptr noundef nonnull align 8 dereferenceable(8) %7) #17
  br i1 %28, label %34, label %29

29:                                               ; preds = %27
  call void @llvm.lifetime.end.p0(i64 8, ptr %7) #17
  call void @llvm.lifetime.end.p0(i64 8, ptr %6) #17
  call void @llvm.lifetime.end.p0(i64 8, ptr %5) #17
  br label %41

30:                                               ; preds = %1
  %31 = landingpad { ptr, i32 }
          cleanup
  %32 = extractvalue { ptr, i32 } %31, 0
  store ptr %32, ptr %3, align 8
  %33 = extractvalue { ptr, i32 } %31, 1
  store i32 %33, ptr %4, align 4
  call void @_ZdlPvm(ptr noundef %11, i64 noundef 1144) #20
  br label %106

34:                                               ; preds = %27
  call void @llvm.lifetime.start.p0(i64 8, ptr %8) #17
  %35 = call noundef nonnull align 8 dereferenceable(137) ptr @_ZNK9__gnu_cxx17__normal_iteratorIPN6Assimp3SMD4BoneESt6vectorIS3_SaIS3_EEEdeEv(ptr noundef nonnull align 8 dereferenceable(8) %6) #17
  store ptr %35, ptr %8, align 8
  %36 = load ptr, ptr %8, align 8
  %37 = getelementptr inbounds nuw %"struct.Assimp::SMD::Bone", ptr %36, i32 0, i32 4
  %38 = call noundef nonnull align 4 dereferenceable(64) ptr @_ZN12aiMatrix4x4tIfE7InverseEv(ptr noundef nonnull align 4 dereferenceable(64) %37)
  call void @llvm.lifetime.end.p0(i64 8, ptr %8) #17
  br label %39

39:                                               ; preds = %34
  %40 = call noundef nonnull align 8 dereferenceable(8) ptr @_ZN9__gnu_cxx17__normal_iteratorIPN6Assimp3SMD4BoneESt6vectorIS3_SaIS3_EEEppEv(ptr noundef nonnull align 8 dereferenceable(8) %6) #17
  br label %27

41:                                               ; preds = %29
  %42 = getelementptr inbounds nuw %"class.Assimp::SMDImporter", ptr %10, i32 0, i32 5
  %43 = load ptr, ptr %42, align 8
  %44 = getelementptr inbounds nuw %struct.aiScene, ptr %43, i32 0, i32 0
  %45 = load i32, ptr %44, align 8
  %46 = and i32 %45, 1
  %47 = icmp ne i32 %46, 0
  br i1 %47, label %48, label %82

48:                                               ; preds = %41
  %49 = getelementptr inbounds nuw %"class.Assimp::SMDImporter", ptr %10, i32 0, i32 5
  %50 = load ptr, ptr %49, align 8
  %51 = getelementptr inbounds nuw %struct.aiScene, ptr %50, i32 0, i32 1
  %52 = load ptr, ptr %51, align 8
  %53 = getelementptr inbounds nuw %struct.aiNode, ptr %52, i32 0, i32 3
  %54 = load i32, ptr %53, align 8
  %55 = icmp eq i32 1, %54
  br i1 %55, label %56, label %82

56:                                               ; preds = %48
  call void @llvm.lifetime.start.p0(i64 8, ptr %9) #17
  %57 = getelementptr inbounds nuw %"class.Assimp::SMDImporter", ptr %10, i32 0, i32 5
  %58 = load ptr, ptr %57, align 8
  %59 = getelementptr inbounds nuw %struct.aiScene, ptr %58, i32 0, i32 1
  %60 = load ptr, ptr %59, align 8
  store ptr %60, ptr %9, align 8
  %61 = load ptr, ptr %9, align 8
  %62 = getelementptr inbounds nuw %struct.aiNode, ptr %61, i32 0, i32 4
  %63 = load ptr, ptr %62, align 8
  %64 = getelementptr inbounds ptr, ptr %63, i64 0
  %65 = load ptr, ptr %64, align 8
  %66 = getelementptr inbounds nuw %"class.Assimp::SMDImporter", ptr %10, i32 0, i32 5
  %67 = load ptr, ptr %66, align 8
  %68 = getelementptr inbounds nuw %struct.aiScene, ptr %67, i32 0, i32 1
  store ptr %65, ptr %68, align 8
  %69 = load ptr, ptr %9, align 8
  %70 = getelementptr inbounds nuw %struct.aiNode, ptr %69, i32 0, i32 4
  %71 = load ptr, ptr %70, align 8
  %72 = getelementptr inbounds ptr, ptr %71, i64 0
  store ptr null, ptr %72, align 8
  %73 = load ptr, ptr %9, align 8
  %74 = icmp eq ptr %73, null
  br i1 %74, label %76, label %75

75:                                               ; preds = %56
  call void @_ZN6aiNodeD1Ev(ptr noundef nonnull align 8 dereferenceable(1144) %73) #17
  call void @_ZdlPvm(ptr noundef %73, i64 noundef 1144) #20
  br label %76

76:                                               ; preds = %75, %56
  %77 = getelementptr inbounds nuw %"class.Assimp::SMDImporter", ptr %10, i32 0, i32 5
  %78 = load ptr, ptr %77, align 8
  %79 = getelementptr inbounds nuw %struct.aiScene, ptr %78, i32 0, i32 1
  %80 = load ptr, ptr %79, align 8
  %81 = getelementptr inbounds nuw %struct.aiNode, ptr %80, i32 0, i32 2
  store ptr null, ptr %81, align 8
  call void @llvm.lifetime.end.p0(i64 8, ptr %9) #17
  br label %105

82:                                               ; preds = %48, %41
  %83 = getelementptr inbounds nuw %"class.Assimp::SMDImporter", ptr %10, i32 0, i32 5
  %84 = load ptr, ptr %83, align 8
  %85 = getelementptr inbounds nuw %struct.aiScene, ptr %84, i32 0, i32 1
  %86 = load ptr, ptr %85, align 8
  %87 = getelementptr inbounds nuw %struct.aiNode, ptr %86, i32 0, i32 0
  %88 = getelementptr inbounds nuw %struct.aiString, ptr %87, i32 0, i32 0
  store i32 10, ptr %88, align 8
  %89 = getelementptr inbounds nuw %"class.Assimp::SMDImporter", ptr %10, i32 0, i32 5
  %90 = load ptr, ptr %89, align 8
  %91 = getelementptr inbounds nuw %struct.aiScene, ptr %90, i32 0, i32 1
  %92 = load ptr, ptr %91, align 8
  %93 = getelementptr inbounds nuw %struct.aiNode, ptr %92, i32 0, i32 0
  %94 = getelementptr inbounds nuw %struct.aiString, ptr %93, i32 0, i32 1
  %95 = getelementptr inbounds [1024 x i8], ptr %94, i64 0, i64 0
  %96 = getelementptr inbounds nuw %"class.Assimp::SMDImporter", ptr %10, i32 0, i32 5
  %97 = load ptr, ptr %96, align 8
  %98 = getelementptr inbounds nuw %struct.aiScene, ptr %97, i32 0, i32 1
  %99 = load ptr, ptr %98, align 8
  %100 = getelementptr inbounds nuw %struct.aiNode, ptr %99, i32 0, i32 0
  %101 = getelementptr inbounds nuw %struct.aiString, ptr %100, i32 0, i32 0
  %102 = load i32, ptr %101, align 8
  %103 = zext i32 %102 to i64
  %104 = call ptr @strncpy(ptr noundef %95, ptr noundef @_ZZN6Assimp11SMDImporter17CreateOutputNodesEvE8rootName, i64 noundef %103) #17
  br label %105

105:                                              ; preds = %82, %76
  ret void

106:                                              ; preds = %30
  %107 = load ptr, ptr %3, align 8
  %108 = load i32, ptr %4, align 4
  %109 = insertvalue { ptr, i32 } poison, ptr %107, 0
  %110 = insertvalue { ptr, i32 } %109, i32 %108, 1
  resume { ptr, i32 } %110
}