; Function Attrs: mustprogress uwtable
define void @_ZN6Assimp11SMDImporter17CreateOutputNodesEv(ptr noundef nonnull readonly align 8 captures(none) dereferenceable(226) %0) local_unnamed_addr #3 align 2 personality ptr @__gxx_personality_v0 {
  %2 = tail call noalias noundef nonnull dereferenceable(1144) ptr @_Znwm(i64 noundef 1144) #30
  invoke void @_ZN6aiNodeC1Ev(ptr noundef nonnull align 8 dereferenceable(1144) %2)
          to label %3 unwind label %17

3:                                                ; preds = %1
  %4 = getelementptr inbounds nuw i8, ptr %0, i64 112
  %5 = load ptr, ptr %4, align 8
  %6 = getelementptr inbounds nuw i8, ptr %5, i64 8
  store ptr %2, ptr %6, align 8
  %7 = load ptr, ptr %4, align 8
  %8 = getelementptr inbounds nuw i8, ptr %7, i64 8
  %9 = load ptr, ptr %8, align 8
  tail call void @_ZN6Assimp11SMDImporter15AddBoneChildrenEP6aiNodej(ptr noundef nonnull align 8 dereferenceable(226) %0, ptr noundef %9, i32 noundef -1)
  %10 = getelementptr inbounds nuw i8, ptr %0, i64 176
  %11 = load ptr, ptr %10, align 8
  %12 = getelementptr inbounds nuw i8, ptr %0, i64 184
  %13 = load ptr, ptr %12, align 8
  %.not1112 = icmp eq ptr %11, %13
  br i1 %.not1112, label %._crit_edge, label %.lr.ph

._crit_edge:                                      ; preds = %.lr.ph, %3
  %14 = load ptr, ptr %4, align 8
  %15 = load i32, ptr %14, align 8
  %16 = and i32 %15, 1
  %.not = icmp eq i32 %16, 0
  %.phi.trans.insert = getelementptr inbounds nuw i8, ptr %14, i64 8
  %.pre = load ptr, ptr %.phi.trans.insert, align 8
  br i1 %.not, label %._crit_edge._crit_edge, label %22

17:                                               ; preds = %1
  %18 = landingpad { ptr, i32 }
          cleanup
  tail call void @_ZdlPvm(ptr noundef nonnull %2, i64 noundef 1144) #31
  resume { ptr, i32 } %18

.lr.ph:                                           ; preds = %3, %.lr.ph
  %.sroa.08.013 = phi ptr [ %21, %.lr.ph ], [ %11, %3 ]
  %19 = getelementptr inbounds nuw i8, ptr %.sroa.08.013, i64 72
  %20 = tail call noundef nonnull align 4 dereferenceable(64) ptr @_ZN12aiMatrix4x4tIfE7InverseEv(ptr noundef nonnull align 4 dereferenceable(64) %19)
  %21 = getelementptr inbounds nuw i8, ptr %.sroa.08.013, i64 144
  %.not11 = icmp eq ptr %21, %13
  br i1 %.not11, label %._crit_edge, label %.lr.ph

22:                                               ; preds = %._crit_edge
  %23 = getelementptr inbounds nuw i8, ptr %.pre, i64 1104
  %24 = load i32, ptr %23, align 8
  %25 = icmp eq i32 %24, 1
  br i1 %25, label %26, label %._crit_edge._crit_edge

26:                                               ; preds = %22
  %27 = getelementptr inbounds nuw i8, ptr %.pre, i64 1112
  %28 = load ptr, ptr %27, align 8
  %29 = load ptr, ptr %28, align 8
  store ptr %29, ptr %.phi.trans.insert, align 8
  %30 = load ptr, ptr %27, align 8
  store ptr null, ptr %30, align 8
  tail call void @_ZN6aiNodeD1Ev(ptr noundef nonnull align 8 dereferenceable(1144) %.pre) #28
  tail call void @_ZdlPvm(ptr noundef nonnull %.pre, i64 noundef 1144) #31
  %31 = load ptr, ptr %4, align 8
  %32 = getelementptr inbounds nuw i8, ptr %31, i64 8
  %33 = load ptr, ptr %32, align 8
  %34 = getelementptr inbounds nuw i8, ptr %33, i64 1096
  store ptr null, ptr %34, align 8
  br label %42

._crit_edge._crit_edge:                           ; preds = %._crit_edge, %22
  store i32 10, ptr %.pre, align 8
  %35 = load ptr, ptr %4, align 8
  %36 = getelementptr inbounds nuw i8, ptr %35, i64 8
  %37 = load ptr, ptr %36, align 8
  %38 = getelementptr inbounds nuw i8, ptr %37, i64 4
  %39 = load i32, ptr %37, align 8
  %40 = zext i32 %39 to i64
  %41 = tail call ptr @strncpy(ptr noundef nonnull %38, ptr noundef nonnull dereferenceable(11) @_ZZN6Assimp11SMDImporter17CreateOutputNodesEvE8rootName, i64 noundef %40) #28
  br label %42

42:                                               ; preds = %._crit_edge._crit_edge, %26
  ret void
}